target datalayout = "e-m:e-p270:32:32-p271:32:32-p272:64:64-i64:64-i128:128-f80:128-n8:16:32:64-S128"
target triple = "x86_64-pc-linux-gnu"

%struct.PROV_MAC_CTX = type { ptr, ptr, ptr, ptr }
%struct.mac_key_st = type { ptr, %struct.CRYPTO_REF_COUNT, ptr, i64, %struct.PROV_CIPHER, ptr, i32 }
%struct.CRYPTO_REF_COUNT = type { i32 }
%struct.PROV_CIPHER = type { ptr, ptr, ptr }

@.str.1 = private unnamed_addr constant [64 x i8] c"../openssl/providers/implementations/signature/mac_legacy_sig.c\00", align 1
@__func__.mac_digest_sign_init = private unnamed_addr constant [21 x i8] c"mac_digest_sign_init\00", align 1

; Function Attrs: nounwind uwtable
define internal i32 @mac_digest_sign_init(ptr noundef %0, ptr noundef %1, ptr noundef %2, ptr noundef %3) #0 {
  %5 = alloca i32, align 4
  %6 = alloca ptr, align 8
  %7 = alloca ptr, align 8
  %8 = alloca ptr, align 8
  %9 = alloca ptr, align 8
  %10 = alloca ptr, align 8
  %11 = alloca ptr, align 8
  %12 = alloca ptr, align 8
  %13 = alloca i32, align 4
  store ptr %0, ptr %6, align 8, !tbaa !3
  store ptr %1, ptr %7, align 8, !tbaa !7
  store ptr %2, ptr %8, align 8, !tbaa !3
  store ptr %3, ptr %9, align 8, !tbaa !9
  call void @llvm.lifetime.start.p0(i64 8, ptr %10) #4
  %14 = load ptr, ptr %6, align 8, !tbaa !3
  store ptr %14, ptr %10, align 8, !tbaa !3
  call void @llvm.lifetime.start.p0(i64 8, ptr %11) #4
  store ptr null, ptr %11, align 8, !tbaa !7
  call void @llvm.lifetime.start.p0(i64 8, ptr %12) #4
  store ptr null, ptr %12, align 8, !tbaa !7
  %15 = call i32 @ossl_prov_is_running()
  %16 = icmp ne i32 %15, 0
  br i1 %16, label %17, label %20

17:                                               ; preds = %4
  %18 = load ptr, ptr %10, align 8, !tbaa !3
  %19 = icmp eq ptr %18, null
  br i1 %19, label %20, label %21

20:                                               ; preds = %17, %4
  store i32 0, ptr %5, align 4
  store i32 1, ptr %13, align 4
  br label %111

21:                                               ; preds = %17
  %22 = load ptr, ptr %10, align 8, !tbaa !3
  %23 = getelementptr inbounds nuw %struct.PROV_MAC_CTX, ptr %22, i32 0, i32 2
  %24 = load ptr, ptr %23, align 8, !tbaa !11
  %25 = icmp eq ptr %24, null
  br i1 %25, label %26, label %30

26:                                               ; preds = %21
  %27 = load ptr, ptr %8, align 8, !tbaa !3
  %28 = icmp eq ptr %27, null
  br i1 %28, label %29, label %30

29:                                               ; preds = %26
  call void @ERR_new()
  call void @ERR_set_debug(ptr noundef @.str.1, i32 noundef 107, ptr noundef @__func__.mac_digest_sign_init)
  call void (i32, i32, ptr, ...) @ERR_set_error(i32 noundef 57, i32 noundef 114, ptr noundef null)
  store i32 0, ptr %5, align 4
  store i32 1, ptr %13, align 4
  br label %111

30:                                               ; preds = %26, %21
  %31 = load ptr, ptr %8, align 8, !tbaa !3
  %32 = icmp ne ptr %31, null
  br i1 %32, label %33, label %45

33:                                               ; preds = %30
  %34 = load ptr, ptr %8, align 8, !tbaa !3
  %35 = call i32 @ossl_mac_key_up_ref(ptr noundef %34)
  %36 = icmp ne i32 %35, 0
  br i1 %36, label %38, label %37

37:                                               ; preds = %33
  store i32 0, ptr %5, align 4
  store i32 1, ptr %13, align 4
  br label %111

38:                                               ; preds = %33
  %39 = load ptr, ptr %10, align 8, !tbaa !3
  %40 = getelementptr inbounds nuw %struct.PROV_MAC_CTX, ptr %39, i32 0, i32 2
  %41 = load ptr, ptr %40, align 8, !tbaa !11
  call void @ossl_mac_key_free(ptr noundef %41)
  %42 = load ptr, ptr %8, align 8, !tbaa !3
  %43 = load ptr, ptr %10, align 8, !tbaa !3
  %44 = getelementptr inbounds nuw %struct.PROV_MAC_CTX, ptr %43, i32 0, i32 2
  store ptr %42, ptr %44, align 8, !tbaa !11
  br label %45

45:                                               ; preds = %38, %30
  %46 = load ptr, ptr %10, align 8, !tbaa !3
  %47 = getelementptr inbounds nuw %struct.PROV_MAC_CTX, ptr %46, i32 0, i32 2
  %48 = load ptr, ptr %47, align 8, !tbaa !11
  %49 = getelementptr inbounds nuw %struct.mac_key_st, ptr %48, i32 0, i32 4
  %50 = getelementptr inbounds nuw %struct.PROV_CIPHER, ptr %49, i32 0, i32 0
  %51 = load ptr, ptr %50, align 8, !tbaa !16
  %52 = icmp ne ptr %51, null
  br i1 %52, label %53, label %61

53:                                               ; preds = %45
  %54 = load ptr, ptr %10, align 8, !tbaa !3
  %55 = getelementptr inbounds nuw %struct.PROV_MAC_CTX, ptr %54, i32 0, i32 2
  %56 = load ptr, ptr %55, align 8, !tbaa !11
  %57 = getelementptr inbounds nuw %struct.mac_key_st, ptr %56, i32 0, i32 4
  %58 = getelementptr inbounds nuw %struct.PROV_CIPHER, ptr %57, i32 0, i32 0
  %59 = load ptr, ptr %58, align 8, !tbaa !16
  %60 = call ptr @EVP_CIPHER_get0_name(ptr noundef %59)
  store ptr %60, ptr %11, align 8, !tbaa !7
  br label %61

61:                                               ; preds = %53, %45
  %62 = load ptr, ptr %10, align 8, !tbaa !3
  %63 = getelementptr inbounds nuw %struct.PROV_MAC_CTX, ptr %62, i32 0, i32 2
  %64 = load ptr, ptr %63, align 8, !tbaa !11
  %65 = getelementptr inbounds nuw %struct.mac_key_st, ptr %64, i32 0, i32 4
  %66 = getelementptr inbounds nuw %struct.PROV_CIPHER, ptr %65, i32 0, i32 2
  %67 = load ptr, ptr %66, align 8, !tbaa !24
  %68 = icmp ne ptr %67, null
  br i1 %68, label %69, label %77

69:                                               ; preds = %61
  %70 = load ptr, ptr %10, align 8, !tbaa !3
  %71 = getelementptr inbounds nuw %struct.PROV_MAC_CTX, ptr %70, i32 0, i32 2
  %72 = load ptr, ptr %71, align 8, !tbaa !11
  %73 = getelementptr inbounds nuw %struct.mac_key_st, ptr %72, i32 0, i32 4
  %74 = getelementptr inbounds nuw %struct.PROV_CIPHER, ptr %73, i32 0, i32 2
  %75 = load ptr, ptr %74, align 8, !tbaa !24
  %76 = call ptr @ENGINE_get_id(ptr noundef %75)
  store ptr %76, ptr %12, align 8, !tbaa !7
  br label %77

77:                                               ; preds = %69, %61
  %78 = load ptr, ptr %10, align 8, !tbaa !3
  %79 = getelementptr inbounds nuw %struct.PROV_MAC_CTX, ptr %78, i32 0, i32 3
  %80 = load ptr, ptr %79, align 8, !tbaa !25
  %81 = load ptr, ptr %11, align 8, !tbaa !7
  %82 = load ptr, ptr %7, align 8, !tbaa !7
  %83 = load ptr, ptr %12, align 8, !tbaa !7
  %84 = load ptr, ptr %10, align 8, !tbaa !3
  %85 = getelementptr inbounds nuw %struct.PROV_MAC_CTX, ptr %84, i32 0, i32 2
  %86 = load ptr, ptr %85, align 8, !tbaa !11
  %87 = getelementptr inbounds nuw %struct.mac_key_st, ptr %86, i32 0, i32 5
  %88 = load ptr, ptr %87, align 8, !tbaa !26
  %89 = call i32 @ossl_prov_set_macctx(ptr noundef %80, ptr noundef null, ptr noundef %81, ptr noundef %82, ptr noundef %83, ptr noundef %88, ptr noundef null, i64 noundef 0)
  %90 = icmp ne i32 %89, 0
  br i1 %90, label %92, label %91

91:                                               ; preds = %77
  store i32 0, ptr %5, align 4
  store i32 1, ptr %13, align 4
  br label %111

92:                                               ; preds = %77
  %93 = load ptr, ptr %10, align 8, !tbaa !3
  %94 = getelementptr inbounds nuw %struct.PROV_MAC_CTX, ptr %93, i32 0, i32 3
  %95 = load ptr, ptr %94, align 8, !tbaa !25
  %96 = load ptr, ptr %10, align 8, !tbaa !3
  %97 = getelementptr inbounds nuw %struct.PROV_MAC_CTX, ptr %96, i32 0, i32 2
  %98 = load ptr, ptr %97, align 8, !tbaa !11
  %99 = getelementptr inbounds nuw %struct.mac_key_st, ptr %98, i32 0, i32 2
  %100 = load ptr, ptr %99, align 8, !tbaa !27
  %101 = load ptr, ptr %10, align 8, !tbaa !3
  %102 = getelementptr inbounds nuw %struct.PROV_MAC_CTX, ptr %101, i32 0, i32 2
  %103 = load ptr, ptr %102, align 8, !tbaa !11
  %104 = getelementptr inbounds nuw %struct.mac_key_st, ptr %103, i32 0, i32 3
  %105 = load i64, ptr %104, align 8, !tbaa !28
  %106 = load ptr, ptr %9, align 8, !tbaa !9
  %107 = call i32 @EVP_MAC_init(ptr noundef %95, ptr noundef %100, i64 noundef %105, ptr noundef %106)
  %108 = icmp ne i32 %107, 0
  br i1 %108, label %110, label %109

109:                                              ; preds = %92
  store i32 0, ptr %5, align 4
  store i32 1, ptr %13, align 4
  br label %111

110:                                              ; preds = %92
  store i32 1, ptr %5, align 4
  store i32 1, ptr %13, align 4
  br label %111

111:                                              ; preds = %110, %109, %91, %37, %29, %20
  call void @llvm.lifetime.end.p0(i64 8, ptr %12) #4
  call void @llvm.lifetime.end.p0(i64 8, ptr %11) #4
  call void @llvm.lifetime.end.p0(i64 8, ptr %10) #4
  %112 = load i32, ptr %5, align 4
  ret i32 %112
}