; Function Attrs: nounwind uwtable
define internal range(i32 0, 2) i32 @mac_digest_sign_init(ptr noundef captures(address_is_null) %0, ptr noundef %1, ptr noundef %2, ptr noundef %3) #0 {
  %5 = tail call i32 @ossl_prov_is_running() #3
  %6 = icmp eq i32 %5, 0
  %7 = icmp eq ptr %0, null
  %or.cond = or i1 %7, %6
  br i1 %or.cond, label %46, label %8

8:                                                ; preds = %4
  %9 = getelementptr inbounds nuw i8, ptr %0, i64 16
  %10 = load ptr, ptr %9, align 8, !tbaa !3
  %11 = icmp eq ptr %10, null
  %12 = icmp eq ptr %2, null
  %or.cond3 = and i1 %12, %11
  br i1 %or.cond3, label %13, label %14

13:                                               ; preds = %8
  tail call void @ERR_new() #3
  tail call void @ERR_set_debug(ptr noundef nonnull @.str.1, i32 noundef 107, ptr noundef nonnull @__func__.mac_digest_sign_init) #3
  tail call void (i32, i32, ptr, ...) @ERR_set_error(i32 noundef 57, i32 noundef 114, ptr noundef null) #3
  br label %46

14:                                               ; preds = %8
  br i1 %12, label %19, label %15

15:                                               ; preds = %14
  %16 = tail call i32 @ossl_mac_key_up_ref(ptr noundef nonnull %2) #3
  %.not31 = icmp eq i32 %16, 0
  br i1 %.not31, label %46, label %17

17:                                               ; preds = %15
  %18 = load ptr, ptr %9, align 8, !tbaa !3
  tail call void @ossl_mac_key_free(ptr noundef %18) #3
  store ptr %2, ptr %9, align 8, !tbaa !3
  br label %19

19:                                               ; preds = %17, %14
  %20 = phi ptr [ %2, %17 ], [ %10, %14 ]
  %21 = getelementptr inbounds nuw i8, ptr %20, i64 32
  %22 = load ptr, ptr %21, align 8, !tbaa !12
  %.not32 = icmp eq ptr %22, null
  br i1 %.not32, label %25, label %23

23:                                               ; preds = %19
  %24 = tail call ptr @EVP_CIPHER_get0_name(ptr noundef nonnull %22) #3
  %.pre = load ptr, ptr %9, align 8, !tbaa !3
  br label %25

25:                                               ; preds = %23, %19
  %26 = phi ptr [ %.pre, %23 ], [ %20, %19 ]
  %.025 = phi ptr [ %24, %23 ], [ null, %19 ]
  %27 = getelementptr inbounds nuw i8, ptr %26, i64 48
  %28 = load ptr, ptr %27, align 8, !tbaa !20
  %.not33 = icmp eq ptr %28, null
  br i1 %.not33, label %31, label %29

29:                                               ; preds = %25
  %30 = tail call ptr @ENGINE_get_id(ptr noundef nonnull %28) #3
  %.pre36 = load ptr, ptr %9, align 8, !tbaa !3
  br label %31

31:                                               ; preds = %29, %25
  %32 = phi ptr [ %.pre36, %29 ], [ %26, %25 ]
  %.0 = phi ptr [ %30, %29 ], [ null, %25 ]
  %33 = getelementptr inbounds nuw i8, ptr %0, i64 24
  %34 = load ptr, ptr %33, align 8, !tbaa !21
  %35 = getelementptr inbounds nuw i8, ptr %32, i64 56
  %36 = load ptr, ptr %35, align 8, !tbaa !22
  %37 = tail call i32 @ossl_prov_set_macctx(ptr noundef %34, ptr noundef null, ptr noundef %.025, ptr noundef %1, ptr noundef %.0, ptr noundef %36, ptr noundef null, i64 noundef 0) #3
  %.not34 = icmp eq i32 %37, 0
  br i1 %.not34, label %46, label %38

38:                                               ; preds = %31
  %39 = load ptr, ptr %33, align 8, !tbaa !21
  %40 = load ptr, ptr %9, align 8, !tbaa !3
  %41 = getelementptr inbounds nuw i8, ptr %40, i64 16
  %42 = load ptr, ptr %41, align 8, !tbaa !23
  %43 = getelementptr inbounds nuw i8, ptr %40, i64 24
  %44 = load i64, ptr %43, align 8, !tbaa !24
  %45 = tail call i32 @EVP_MAC_init(ptr noundef %39, ptr noundef %42, i64 noundef %44, ptr noundef %3) #3
  %.not35 = icmp ne i32 %45, 0
  %. = zext i1 %.not35 to i32
  br label %46

46:                                               ; preds = %38, %31, %15, %4, %13
  %.026 = phi i32 [ 0, %13 ], [ 0, %4 ], [ 0, %15 ], [ 0, %31 ], [ %., %38 ]
  ret i32 %.026
}